target datalayout = "e-m:e-p270:32:32-p271:32:32-p272:64:64-i64:64-i128:128-f80:128-n8:16:32:64-S128"
target triple = "x86_64-pc-linux-gnu"

%struct.AVFilterContext = type { ptr, ptr, ptr, ptr, ptr, i32, ptr, ptr, i32, ptr, ptr, i32, i32, ptr, ptr, ptr, ptr, i32, ptr, i32, i32 }
%struct.AudioDelayContext = type { ptr, i32, ptr, ptr, i32, i32, i64, i64, i64, i64, i32, ptr, ptr, ptr }
%struct.ChanDelay = type { i64, i64, i64, i32, ptr }

; Function Attrs: cold nounwind optsize uwtable
define internal void @uninit(ptr noundef %0) #0 {
  %2 = alloca ptr, align 8
  %3 = alloca ptr, align 8
  %4 = alloca i32, align 4
  store ptr %0, ptr %2, align 8, !tbaa !4
  call void @llvm.lifetime.start.p0(i64 8, ptr %3) #9
  %5 = load ptr, ptr %2, align 8, !tbaa !4
  %6 = getelementptr inbounds nuw %struct.AVFilterContext, ptr %5, i32 0, i32 9
  %7 = load ptr, ptr %6, align 8, !tbaa !9
  store ptr %7, ptr %3, align 8, !tbaa !22
  %8 = load ptr, ptr %3, align 8, !tbaa !22
  %9 = getelementptr inbounds nuw %struct.AudioDelayContext, ptr %8, i32 0, i32 3
  %10 = load ptr, ptr %9, align 8, !tbaa !24
  %11 = icmp ne ptr %10, null
  br i1 %11, label %12, label %32

12:                                               ; preds = %1
  call void @llvm.lifetime.start.p0(i64 4, ptr %4) #9
  store i32 0, ptr %4, align 4, !tbaa !29
  br label %13

13:                                               ; preds = %28, %12
  %14 = load i32, ptr %4, align 4, !tbaa !29
  %15 = load ptr, ptr %3, align 8, !tbaa !22
  %16 = getelementptr inbounds nuw %struct.AudioDelayContext, ptr %15, i32 0, i32 4
  %17 = load i32, ptr %16, align 8, !tbaa !30
  %18 = icmp slt i32 %14, %17
  br i1 %18, label %20, label %19

19:                                               ; preds = %13
  call void @llvm.lifetime.end.p0(i64 4, ptr %4) #9
  br label %31

20:                                               ; preds = %13
  %21 = load ptr, ptr %3, align 8, !tbaa !22
  %22 = getelementptr inbounds nuw %struct.AudioDelayContext, ptr %21, i32 0, i32 3
  %23 = load ptr, ptr %22, align 8, !tbaa !24
  %24 = load i32, ptr %4, align 4, !tbaa !29
  %25 = sext i32 %24 to i64
  %26 = getelementptr inbounds %struct.ChanDelay, ptr %23, i64 %25
  %27 = getelementptr inbounds nuw %struct.ChanDelay, ptr %26, i32 0, i32 4
  call void @av_freep(ptr noundef %27)
  br label %28

28:                                               ; preds = %20
  %29 = load i32, ptr %4, align 4, !tbaa !29
  %30 = add nsw i32 %29, 1
  store i32 %30, ptr %4, align 4, !tbaa !29
  br label %13, !llvm.loop !31

31:                                               ; preds = %19
  br label %32

32:                                               ; preds = %31, %1
  %33 = load ptr, ptr %3, align 8, !tbaa !22
  %34 = getelementptr inbounds nuw %struct.AudioDelayContext, ptr %33, i32 0, i32 3
  call void @av_freep(ptr noundef %34)
  call void @llvm.lifetime.end.p0(i64 8, ptr %3) #9
  ret void
}